target datalayout = "e-m:e-p270:32:32-p271:32:32-p272:64:64-i64:64-i128:128-f80:128-n8:16:32:64-S128"
target triple = "x86_64-pc-linux-gnu"

%"class.zmq::msg_t" = type { %union.anon }
%union.anon = type { %struct.anon }
%struct.anon = type { ptr, [34 x i8], i8, i8, i32, %"union.zmq::msg_t::group_t" }
%"union.zmq::msg_t::group_t" = type { %struct.anon.1 }
%struct.anon.1 = type { i8, ptr }
%"class.zmq::pipe_t" = type { %"class.zmq::object_t.base", [4 x i8], %"class.zmq::array_item_t.base", [4 x i8], %"class.zmq::array_item_t.base.11", [4 x i8], %"class.zmq::array_item_t.base.13", ptr, ptr, i8, i8, i32, i32, i32, i32, i64, i64, i64, ptr, ptr, i32, i8, [3 x i8], %"struct.zmq::blob_t", i32, i8, [3 x i8], %"struct.zmq::endpoint_uri_pair_t", %"class.zmq::msg_t" }
%"class.zmq::object_t.base" = type <{ ptr, ptr, i32 }>
%"class.zmq::array_item_t.base" = type <{ ptr, i32 }>
%"class.zmq::array_item_t.base.11" = type <{ ptr, i32 }>
%"class.zmq::array_item_t.base.13" = type <{ ptr, i32 }>
%"struct.zmq::blob_t" = type <{ ptr, i64, i8, [7 x i8] }>
%"struct.zmq::endpoint_uri_pair_t" = type <{ %"class.std::__cxx11::basic_string", %"class.std::__cxx11::basic_string", i32, [4 x i8] }>
%"class.std::__cxx11::basic_string" = type { %"struct.std::__cxx11::basic_string<char>::_Alloc_hider", i64, %union.anon.14 }
%"struct.std::__cxx11::basic_string<char>::_Alloc_hider" = type { ptr }
%union.anon.14 = type { i64, [8 x i8] }
%"struct.std::_Vector_base.35" = type { %"struct.std::_Vector_base<unsigned char, std::allocator<unsigned char>>::_Vector_impl" }
%"struct.std::_Vector_base<unsigned char, std::allocator<unsigned char>>::_Vector_impl" = type { %"struct.std::_Vector_base<unsigned char, std::allocator<unsigned char>>::_Vector_impl_data" }
%"struct.std::_Vector_base<unsigned char, std::allocator<unsigned char>>::_Vector_impl_data" = type { ptr, ptr, ptr }

@stderr = external global ptr, align 8
@.str.1 = private unnamed_addr constant [104 x i8] c"generated/home/dtcxzyw/WorkSpace/Projects/compilers/llvm-opt-benchmark/bench/libzmq/libzmq/src/pipe.cpp\00", align 1
@.str.3 = private unnamed_addr constant [12 x i8] c"%s (%s:%d)\0A\00", align 1

; Function Attrs: mustprogress nounwind uwtable
define linkonce_odr noundef i64 @_ZNKSt6vectorIhSaIhEE4sizeEv(ptr noundef nonnull align 8 dereferenceable(24) %0) #9 comdat align 2 {
  %2 = alloca ptr, align 8
  store ptr %0, ptr %2, align 8, !tbaa !111
  %3 = load ptr, ptr %2, align 8
  %4 = getelementptr inbounds nuw %"struct.std::_Vector_base.35", ptr %3, i32 0, i32 0
  %5 = getelementptr inbounds nuw %"struct.std::_Vector_base<unsigned char, std::allocator<unsigned char>>::_Vector_impl_data", ptr %4, i32 0, i32 1
  %6 = load ptr, ptr %5, align 8, !tbaa !115
  %7 = getelementptr inbounds nuw %"struct.std::_Vector_base.35", ptr %3, i32 0, i32 0
  %8 = getelementptr inbounds nuw %"struct.std::_Vector_base<unsigned char, std::allocator<unsigned char>>::_Vector_impl_data", ptr %7, i32 0, i32 0
  %9 = load ptr, ptr %8, align 8, !tbaa !114
  %10 = ptrtoint ptr %6 to i64
  %11 = ptrtoint ptr %9 to i64
  %12 = sub i64 %10, %11
  ret i64 %12
}

; Function Attrs: mustprogress nounwind uwtable
define linkonce_odr noundef nonnull align 1 dereferenceable(1) ptr @_ZNKSt6vectorIhSaIhEEixEm(ptr noundef nonnull align 8 dereferenceable(24) %0, i64 noundef %1) #9 comdat align 2 {
  %3 = alloca ptr, align 8
  %4 = alloca i64, align 8
  store ptr %0, ptr %3, align 8, !tbaa !111
  store i64 %1, ptr %4, align 8, !tbaa !113
  %5 = load ptr, ptr %3, align 8
  %6 = getelementptr inbounds nuw %"struct.std::_Vector_base.35", ptr %5, i32 0, i32 0
  %7 = getelementptr inbounds nuw %"struct.std::_Vector_base<unsigned char, std::allocator<unsigned char>>::_Vector_impl_data", ptr %6, i32 0, i32 0
  %8 = load ptr, ptr %7, align 8, !tbaa !114
  %9 = load i64, ptr %4, align 8, !tbaa !113
  %10 = getelementptr inbounds nuw i8, ptr %8, i64 %9
  ret ptr %10
}

; Function Attrs: mustprogress uwtable
define void @_ZN3zmq6pipe_t18set_disconnect_msgERKSt6vectorIhSaIhEE(ptr noundef nonnull align 8 dereferenceable(328) %0, ptr noundef nonnull align 8 dereferenceable(24) %1) #0 align 2 {
  %3 = alloca ptr, align 8
  %4 = alloca ptr, align 8
  %5 = alloca i32, align 4
  %6 = alloca ptr, align 8
  store ptr %0, ptr %3, align 8, !tbaa !27
  store ptr %1, ptr %4, align 8, !tbaa !111
  %7 = load ptr, ptr %3, align 8
  %8 = getelementptr inbounds nuw %"class.zmq::pipe_t", ptr %7, i32 0, i32 28
  %9 = call noundef i32 @_ZN3zmq5msg_t5closeEv(ptr noundef nonnull align 8 dereferenceable(64) %8)
  call void @llvm.lifetime.start.p0(i64 4, ptr %5) #17
  %10 = getelementptr inbounds nuw %"class.zmq::pipe_t", ptr %7, i32 0, i32 28
  %11 = load ptr, ptr %4, align 8, !tbaa !111
  %12 = call noundef nonnull align 1 dereferenceable(1) ptr @_ZNKSt6vectorIhSaIhEEixEm(ptr noundef nonnull align 8 dereferenceable(24) %11, i64 noundef 0) #17
  %13 = load ptr, ptr %4, align 8, !tbaa !111
  %14 = call noundef i64 @_ZNKSt6vectorIhSaIhEE4sizeEv(ptr noundef nonnull align 8 dereferenceable(24) %13) #17
  %15 = call noundef i32 @_ZN3zmq5msg_t11init_bufferEPKvm(ptr noundef nonnull align 8 dereferenceable(64) %10, ptr noundef %12, i64 noundef %14)
  store i32 %15, ptr %5, align 4, !tbaa !25
  br label %16

16:                                               ; preds = %2
  %17 = load i32, ptr %5, align 4, !tbaa !25
  %18 = icmp eq i32 %17, 0
  %19 = xor i1 %18, true
  %20 = zext i1 %19 to i64
  %21 = call i64 @llvm.expect.i64(i64 %20, i64 0)
  %22 = icmp ne i64 %21, 0
  br i1 %22, label %23, label %33

23:                                               ; preds = %16
  call void @llvm.lifetime.start.p0(i64 8, ptr %6) #17
  %24 = call ptr @__errno_location() #20
  %25 = load i32, ptr %24, align 4, !tbaa !25
  %26 = call ptr @strerror(i32 noundef %25) #17
  store ptr %26, ptr %6, align 8, !tbaa !106
  %27 = load ptr, ptr @stderr, align 8, !tbaa !21
  %28 = load ptr, ptr %6, align 8, !tbaa !106
  %29 = call i32 (ptr, ptr, ...) @fprintf(ptr noundef %27, ptr noundef @.str.3, ptr noundef %28, ptr noundef @.str.1, i32 noundef 592) #17
  %30 = load ptr, ptr @stderr, align 8, !tbaa !21
  %31 = call i32 @fflush(ptr noundef %30)
  %32 = load ptr, ptr %6, align 8, !tbaa !106
  call void @_ZN3zmq9zmq_abortEPKc(ptr noundef %32)
  call void @llvm.lifetime.end.p0(i64 8, ptr %6) #17
  br label %33

33:                                               ; preds = %23, %16
  br label %34

34:                                               ; preds = %33
  br label %35

35:                                               ; preds = %34
  call void @llvm.lifetime.end.p0(i64 4, ptr %5) #17
  ret void
}