; Function Attrs: mustprogress uwtable
define void @_ZN3zmq6pipe_t18set_disconnect_msgERKSt6vectorIhSaIhEE(ptr noundef nonnull align 8 dereferenceable(328) %0, ptr noundef nonnull readonly align 8 captures(none) dereferenceable(24) %1) local_unnamed_addr #0 align 2 {
  %3 = getelementptr inbounds nuw i8, ptr %0, i64 264
  %4 = tail call noundef i32 @_ZN3zmq5msg_t5closeEv(ptr noundef nonnull align 8 dereferenceable(64) %3)
  %5 = load ptr, ptr %1, align 8, !tbaa !106
  %6 = getelementptr inbounds nuw i8, ptr %1, i64 8
  %7 = load ptr, ptr %6, align 8, !tbaa !107
  %8 = ptrtoint ptr %7 to i64
  %9 = ptrtoint ptr %5 to i64
  %10 = sub i64 %8, %9
  %11 = tail call noundef i32 @_ZN3zmq5msg_t11init_bufferEPKvm(ptr noundef nonnull align 8 dereferenceable(64) %3, ptr noundef nonnull %5, i64 noundef %10)
  %.not = icmp eq i32 %11, 0
  br i1 %.not, label %20, label %12, !prof !47

12:                                               ; preds = %2
  %13 = tail call ptr @__errno_location() #28
  %14 = load i32, ptr %13, align 4, !tbaa !25
  %15 = tail call ptr @strerror(i32 noundef %14) #25
  %16 = load ptr, ptr @stderr, align 8, !tbaa !21
  %17 = tail call i32 (ptr, ptr, ...) @fprintf(ptr noundef %16, ptr noundef nonnull @.str.3, ptr noundef %15, ptr noundef nonnull @.str.1, i32 noundef 592) #26
  %18 = load ptr, ptr @stderr, align 8, !tbaa !21
  %19 = tail call i32 @fflush(ptr noundef %18)
  tail call void @_ZN3zmq9zmq_abortEPKc(ptr noundef %15)
  br label %20

20:                                               ; preds = %12, %2
  ret void
}